target datalayout = "e-m:e-p270:32:32-p271:32:32-p272:64:64-i64:64-i128:128-f80:128-n8:16:32:64-S128"
target triple = "x86_64-pc-linux-gnu"

%struct.LogicalDecodingContext = type { ptr, ptr, ptr, ptr, ptr, i8, %struct.OutputPluginCallbacks, %struct.OutputPluginOptions, ptr, ptr, ptr, ptr, ptr, ptr, ptr, i8, i8, i8, i8, i8, i64, i32, i8, i8 }
%struct.OutputPluginCallbacks = type { ptr, ptr, ptr, ptr, ptr, ptr, ptr, ptr, ptr, ptr, ptr, ptr, ptr, ptr, ptr, ptr, ptr, ptr, ptr, ptr, ptr }
%struct.OutputPluginOptions = type { i32, i8 }
%struct.ReorderBuffer = type { ptr, %struct.dlist_head, %struct.dlist_head, %struct.dclist_head, i32, ptr, ptr, ptr, ptr, ptr, ptr, ptr, ptr, ptr, ptr, ptr, ptr, ptr, ptr, ptr, ptr, ptr, ptr, ptr, ptr, i8, ptr, ptr, ptr, ptr, i64, ptr, i64, i64, ptr, i64, i64, i64, i64, i64, i64, i64, i64 }
%struct.dlist_head = type { %struct.dlist_node }
%struct.dlist_node = type { ptr, ptr }
%struct.dclist_head = type { %struct.dlist_head, i32 }
%struct.PgStat_StatReplSlotEntry = type { i64, i64, i64, i64, i64, i64, i64, i64, i64 }

@.str.1 = private unnamed_addr constant [10 x i8] c"logical.c\00", align 1
@.str.26 = private unnamed_addr constant [79 x i8] c"UpdateDecodingStats: updating stats %p %lld %lld %lld %lld %lld %lld %lld %lld\00", align 1
@__func__.UpdateDecodingStats = private unnamed_addr constant [20 x i8] c"UpdateDecodingStats\00", align 1

; Function Attrs: nounwind uwtable
define dso_local void @UpdateDecodingStats(ptr noundef %0) #0 {
  %2 = alloca ptr, align 8
  %3 = alloca ptr, align 8
  %4 = alloca %struct.PgStat_StatReplSlotEntry, align 8
  %5 = alloca i32, align 4
  store ptr %0, ptr %2, align 8
  call void @llvm.lifetime.start.p0(i64 8, ptr %3) #10
  %6 = load ptr, ptr %2, align 8
  %7 = getelementptr inbounds nuw %struct.LogicalDecodingContext, ptr %6, i32 0, i32 3
  %8 = load ptr, ptr %7, align 8
  store ptr %8, ptr %3, align 8
  call void @llvm.lifetime.start.p0(i64 72, ptr %4) #10
  %9 = load ptr, ptr %3, align 8
  %10 = getelementptr inbounds nuw %struct.ReorderBuffer, ptr %9, i32 0, i32 37
  %11 = load i64, ptr %10, align 8
  %12 = icmp sle i64 %11, 0
  br i1 %12, label %13, label %24

13:                                               ; preds = %1
  %14 = load ptr, ptr %3, align 8
  %15 = getelementptr inbounds nuw %struct.ReorderBuffer, ptr %14, i32 0, i32 40
  %16 = load i64, ptr %15, align 8
  %17 = icmp sle i64 %16, 0
  br i1 %17, label %18, label %24

18:                                               ; preds = %13
  %19 = load ptr, ptr %3, align 8
  %20 = getelementptr inbounds nuw %struct.ReorderBuffer, ptr %19, i32 0, i32 42
  %21 = load i64, ptr %20, align 8
  %22 = icmp sle i64 %21, 0
  br i1 %22, label %23, label %24

23:                                               ; preds = %18
  store i32 1, ptr %5, align 4
  br label %111

24:                                               ; preds = %18, %13, %1
  br label %25

25:                                               ; preds = %24
  br i1 false, label %26, label %28

26:                                               ; preds = %25
  %27 = call zeroext i1 @errstart_cold(i32 noundef 13, ptr noundef null) #9
  br i1 %27, label %30, label %57

28:                                               ; preds = %25
  %29 = call zeroext i1 @errstart(i32 noundef 13, ptr noundef null)
  br i1 %29, label %30, label %57

30:                                               ; preds = %28, %26
  %31 = load ptr, ptr %3, align 8
  %32 = load ptr, ptr %3, align 8
  %33 = getelementptr inbounds nuw %struct.ReorderBuffer, ptr %32, i32 0, i32 35
  %34 = load i64, ptr %33, align 8
  %35 = load ptr, ptr %3, align 8
  %36 = getelementptr inbounds nuw %struct.ReorderBuffer, ptr %35, i32 0, i32 36
  %37 = load i64, ptr %36, align 8
  %38 = load ptr, ptr %3, align 8
  %39 = getelementptr inbounds nuw %struct.ReorderBuffer, ptr %38, i32 0, i32 37
  %40 = load i64, ptr %39, align 8
  %41 = load ptr, ptr %3, align 8
  %42 = getelementptr inbounds nuw %struct.ReorderBuffer, ptr %41, i32 0, i32 38
  %43 = load i64, ptr %42, align 8
  %44 = load ptr, ptr %3, align 8
  %45 = getelementptr inbounds nuw %struct.ReorderBuffer, ptr %44, i32 0, i32 39
  %46 = load i64, ptr %45, align 8
  %47 = load ptr, ptr %3, align 8
  %48 = getelementptr inbounds nuw %struct.ReorderBuffer, ptr %47, i32 0, i32 40
  %49 = load i64, ptr %48, align 8
  %50 = load ptr, ptr %3, align 8
  %51 = getelementptr inbounds nuw %struct.ReorderBuffer, ptr %50, i32 0, i32 41
  %52 = load i64, ptr %51, align 8
  %53 = load ptr, ptr %3, align 8
  %54 = getelementptr inbounds nuw %struct.ReorderBuffer, ptr %53, i32 0, i32 42
  %55 = load i64, ptr %54, align 8
  %56 = call i32 (ptr, ...) @errmsg_internal(ptr noundef @.str.26, ptr noundef %31, i64 noundef %34, i64 noundef %37, i64 noundef %40, i64 noundef %43, i64 noundef %46, i64 noundef %49, i64 noundef %52, i64 noundef %55)
  call void @errfinish(ptr noundef @.str.1, i32 noundef 1933, ptr noundef @__func__.UpdateDecodingStats)
  br label %57

57:                                               ; preds = %30, %28, %26
  br label %58

58:                                               ; preds = %57
  br label %59

59:                                               ; preds = %58
  %60 = load ptr, ptr %3, align 8
  %61 = getelementptr inbounds nuw %struct.ReorderBuffer, ptr %60, i32 0, i32 35
  %62 = load i64, ptr %61, align 8
  %63 = getelementptr inbounds nuw %struct.PgStat_StatReplSlotEntry, ptr %4, i32 0, i32 0
  store i64 %62, ptr %63, align 8
  %64 = load ptr, ptr %3, align 8
  %65 = getelementptr inbounds nuw %struct.ReorderBuffer, ptr %64, i32 0, i32 36
  %66 = load i64, ptr %65, align 8
  %67 = getelementptr inbounds nuw %struct.PgStat_StatReplSlotEntry, ptr %4, i32 0, i32 1
  store i64 %66, ptr %67, align 8
  %68 = load ptr, ptr %3, align 8
  %69 = getelementptr inbounds nuw %struct.ReorderBuffer, ptr %68, i32 0, i32 37
  %70 = load i64, ptr %69, align 8
  %71 = getelementptr inbounds nuw %struct.PgStat_StatReplSlotEntry, ptr %4, i32 0, i32 2
  store i64 %70, ptr %71, align 8
  %72 = load ptr, ptr %3, align 8
  %73 = getelementptr inbounds nuw %struct.ReorderBuffer, ptr %72, i32 0, i32 38
  %74 = load i64, ptr %73, align 8
  %75 = getelementptr inbounds nuw %struct.PgStat_StatReplSlotEntry, ptr %4, i32 0, i32 3
  store i64 %74, ptr %75, align 8
  %76 = load ptr, ptr %3, align 8
  %77 = getelementptr inbounds nuw %struct.ReorderBuffer, ptr %76, i32 0, i32 39
  %78 = load i64, ptr %77, align 8
  %79 = getelementptr inbounds nuw %struct.PgStat_StatReplSlotEntry, ptr %4, i32 0, i32 4
  store i64 %78, ptr %79, align 8
  %80 = load ptr, ptr %3, align 8
  %81 = getelementptr inbounds nuw %struct.ReorderBuffer, ptr %80, i32 0, i32 40
  %82 = load i64, ptr %81, align 8
  %83 = getelementptr inbounds nuw %struct.PgStat_StatReplSlotEntry, ptr %4, i32 0, i32 5
  store i64 %82, ptr %83, align 8
  %84 = load ptr, ptr %3, align 8
  %85 = getelementptr inbounds nuw %struct.ReorderBuffer, ptr %84, i32 0, i32 41
  %86 = load i64, ptr %85, align 8
  %87 = getelementptr inbounds nuw %struct.PgStat_StatReplSlotEntry, ptr %4, i32 0, i32 6
  store i64 %86, ptr %87, align 8
  %88 = load ptr, ptr %3, align 8
  %89 = getelementptr inbounds nuw %struct.ReorderBuffer, ptr %88, i32 0, i32 42
  %90 = load i64, ptr %89, align 8
  %91 = getelementptr inbounds nuw %struct.PgStat_StatReplSlotEntry, ptr %4, i32 0, i32 7
  store i64 %90, ptr %91, align 8
  %92 = load ptr, ptr %2, align 8
  %93 = getelementptr inbounds nuw %struct.LogicalDecodingContext, ptr %92, i32 0, i32 1
  %94 = load ptr, ptr %93, align 8
  call void @pgstat_report_replslot(ptr noundef %94, ptr noundef %4)
  %95 = load ptr, ptr %3, align 8
  %96 = getelementptr inbounds nuw %struct.ReorderBuffer, ptr %95, i32 0, i32 35
  store i64 0, ptr %96, align 8
  %97 = load ptr, ptr %3, align 8
  %98 = getelementptr inbounds nuw %struct.ReorderBuffer, ptr %97, i32 0, i32 36
  store i64 0, ptr %98, align 8
  %99 = load ptr, ptr %3, align 8
  %100 = getelementptr inbounds nuw %struct.ReorderBuffer, ptr %99, i32 0, i32 37
  store i64 0, ptr %100, align 8
  %101 = load ptr, ptr %3, align 8
  %102 = getelementptr inbounds nuw %struct.ReorderBuffer, ptr %101, i32 0, i32 38
  store i64 0, ptr %102, align 8
  %103 = load ptr, ptr %3, align 8
  %104 = getelementptr inbounds nuw %struct.ReorderBuffer, ptr %103, i32 0, i32 39
  store i64 0, ptr %104, align 8
  %105 = load ptr, ptr %3, align 8
  %106 = getelementptr inbounds nuw %struct.ReorderBuffer, ptr %105, i32 0, i32 40
  store i64 0, ptr %106, align 8
  %107 = load ptr, ptr %3, align 8
  %108 = getelementptr inbounds nuw %struct.ReorderBuffer, ptr %107, i32 0, i32 41
  store i64 0, ptr %108, align 8
  %109 = load ptr, ptr %3, align 8
  %110 = getelementptr inbounds nuw %struct.ReorderBuffer, ptr %109, i32 0, i32 42
  store i64 0, ptr %110, align 8
  store i32 0, ptr %5, align 4
  br label %111

111:                                              ; preds = %59, %23
  call void @llvm.lifetime.end.p0(i64 72, ptr %4) #10
  call void @llvm.lifetime.end.p0(i64 8, ptr %3) #10
  %112 = load i32, ptr %5, align 4
  switch i32 %112, label %114 [
    i32 0, label %113
    i32 1, label %113
  ]

113:                                              ; preds = %111, %111
  ret void

114:                                              ; preds = %111
  unreachable
}