; Function Attrs: nounwind uwtable
define dso_local void @UpdateDecodingStats(ptr noundef readonly captures(none) %0) local_unnamed_addr #0 {
  %2 = alloca %struct.PgStat_StatReplSlotEntry, align 8
  %3 = getelementptr inbounds nuw i8, ptr %0, i64 24
  %4 = load ptr, ptr %3, align 8
  call void @llvm.lifetime.start.p0(i64 72, ptr nonnull %2) #10
  %5 = getelementptr inbounds nuw i8, ptr %4, i64 328
  %6 = load i64, ptr %5, align 8
  %7 = icmp slt i64 %6, 1
  br i1 %7, label %8, label %16

8:                                                ; preds = %1
  %9 = getelementptr inbounds nuw i8, ptr %4, i64 352
  %10 = load i64, ptr %9, align 8
  %11 = icmp slt i64 %10, 1
  br i1 %11, label %12, label %16

12:                                               ; preds = %8
  %13 = getelementptr inbounds nuw i8, ptr %4, i64 368
  %14 = load i64, ptr %13, align 8
  %15 = icmp slt i64 %14, 1
  br i1 %15, label %60, label %16

16:                                               ; preds = %12, %8, %1
  %17 = tail call zeroext i1 @errstart(i32 noundef 13, ptr noundef null) #10
  br i1 %17, label %18, label %35

18:                                               ; preds = %16
  %19 = getelementptr inbounds nuw i8, ptr %4, i64 312
  %20 = load i64, ptr %19, align 8
  %21 = getelementptr inbounds nuw i8, ptr %4, i64 320
  %22 = load i64, ptr %21, align 8
  %23 = load i64, ptr %5, align 8
  %24 = getelementptr inbounds nuw i8, ptr %4, i64 336
  %25 = load i64, ptr %24, align 8
  %26 = getelementptr inbounds nuw i8, ptr %4, i64 344
  %27 = load i64, ptr %26, align 8
  %28 = getelementptr inbounds nuw i8, ptr %4, i64 352
  %29 = load i64, ptr %28, align 8
  %30 = getelementptr inbounds nuw i8, ptr %4, i64 360
  %31 = load i64, ptr %30, align 8
  %32 = getelementptr inbounds nuw i8, ptr %4, i64 368
  %33 = load i64, ptr %32, align 8
  %34 = tail call i32 (ptr, ...) @errmsg_internal(ptr noundef nonnull @.str.26, ptr noundef nonnull %4, i64 noundef %20, i64 noundef %22, i64 noundef %23, i64 noundef %25, i64 noundef %27, i64 noundef %29, i64 noundef %31, i64 noundef %33) #10
  tail call void @errfinish(ptr noundef nonnull @.str.1, i32 noundef 1933, ptr noundef nonnull @__func__.UpdateDecodingStats) #10
  br label %35

35:                                               ; preds = %18, %16
  %36 = getelementptr inbounds nuw i8, ptr %4, i64 312
  %37 = load i64, ptr %36, align 8
  store i64 %37, ptr %2, align 8
  %38 = getelementptr inbounds nuw i8, ptr %4, i64 320
  %39 = load i64, ptr %38, align 8
  %40 = getelementptr inbounds nuw i8, ptr %2, i64 8
  store i64 %39, ptr %40, align 8
  %41 = load i64, ptr %5, align 8
  %42 = getelementptr inbounds nuw i8, ptr %2, i64 16
  store i64 %41, ptr %42, align 8
  %43 = getelementptr inbounds nuw i8, ptr %4, i64 336
  %44 = load i64, ptr %43, align 8
  %45 = getelementptr inbounds nuw i8, ptr %2, i64 24
  store i64 %44, ptr %45, align 8
  %46 = getelementptr inbounds nuw i8, ptr %4, i64 344
  %47 = load i64, ptr %46, align 8
  %48 = getelementptr inbounds nuw i8, ptr %2, i64 32
  store i64 %47, ptr %48, align 8
  %49 = getelementptr inbounds nuw i8, ptr %4, i64 352
  %50 = load i64, ptr %49, align 8
  %51 = getelementptr inbounds nuw i8, ptr %2, i64 40
  store i64 %50, ptr %51, align 8
  %52 = getelementptr inbounds nuw i8, ptr %4, i64 360
  %53 = load i64, ptr %52, align 8
  %54 = getelementptr inbounds nuw i8, ptr %2, i64 48
  store i64 %53, ptr %54, align 8
  %55 = getelementptr inbounds nuw i8, ptr %4, i64 368
  %56 = load i64, ptr %55, align 8
  %57 = getelementptr inbounds nuw i8, ptr %2, i64 56
  store i64 %56, ptr %57, align 8
  %58 = getelementptr inbounds nuw i8, ptr %0, i64 8
  %59 = load ptr, ptr %58, align 8
  call void @pgstat_report_replslot(ptr noundef %59, ptr noundef nonnull %2) #10
  call void @llvm.memset.p0.i64(ptr noundef nonnull align 8 dereferenceable(64) %36, i8 0, i64 64, i1 false)
  br label %60

60:                                               ; preds = %12, %35
  call void @llvm.lifetime.end.p0(i64 72, ptr nonnull %2) #10
  ret void
}